target datalayout = "e-m:e-p270:32:32-p271:32:32-p272:64:64-i64:64-i128:128-f80:128-n8:16:32:64-S128"
target triple = "x86_64-pc-linux-gnu"

%struct._typeobject = type { %struct.PyVarObject, ptr, i64, i64, ptr, i64, ptr, ptr, ptr, ptr, ptr, ptr, ptr, ptr, ptr, ptr, ptr, ptr, ptr, i64, ptr, ptr, ptr, ptr, i64, ptr, ptr, ptr, ptr, ptr, ptr, ptr, ptr, ptr, i64, ptr, ptr, ptr, ptr, ptr, ptr, ptr, ptr, ptr, ptr, ptr, i32, ptr, ptr, i8, i16 }
%struct.PyVarObject = type { %struct._object, i64 }
%struct._object = type { %union.anon, ptr }
%union.anon = type { i64 }
%struct.PyBytesObject = type { %struct.PyVarObject, i64, [1 x i8] }
%struct.PyASCIIObject = type { %struct._object, i64, i64, %struct.anon.52 }
%struct.anon.52 = type { i16, i16 }
%struct.PyCompactUnicodeObject = type { %struct.PyASCIIObject, i64, ptr }
%struct.PyByteArrayObject = type { %struct.PyVarObject, i64, ptr, ptr, i64 }
%struct.PyUnicodeObject = type { %struct.PyCompactUnicodeObject, %union.anon.810 }
%union.anon.810 = type { ptr }

@PyByteArray_Type = external global %struct._typeobject, align 8
@PyExc_TypeError = external global ptr, align 8
@.str.162 = private unnamed_addr constant [52 x i8] c"ord() expected string of length 1, but %.200s found\00", align 1
@.str.163 = private unnamed_addr constant [59 x i8] c"ord() expected a character, but string of length %zd found\00", align 1
@_PyByteArray_empty_string = external global [0 x i8], align 1

; Function Attrs: inlinehint nounwind uwtable
define internal i32 @PyUnicode_IS_ASCII(ptr noundef %0) #4 {
  %2 = alloca ptr, align 8
  store ptr %0, ptr %2, align 8, !tbaa !4
  %3 = load ptr, ptr %2, align 8, !tbaa !4
  %4 = getelementptr inbounds nuw %struct.PyASCIIObject, ptr %3, i32 0, i32 3
  %5 = getelementptr inbounds nuw %struct.anon.52, ptr %4, i32 0, i32 1
  %6 = load i16, ptr %5, align 2
  %7 = lshr i16 %6, 4
  %8 = and i16 %7, 1
  %9 = zext i16 %8 to i32
  ret i32 %9
}

; Function Attrs: inlinehint nounwind uwtable
define internal ptr @_PyUnicode_NONCOMPACT_DATA(ptr noundef %0) #4 {
  %2 = alloca ptr, align 8
  %3 = alloca ptr, align 8
  store ptr %0, ptr %2, align 8, !tbaa !4
  call void @llvm.lifetime.start.p0(i64 8, ptr %3) #9
  %4 = load ptr, ptr %2, align 8, !tbaa !4
  %5 = getelementptr inbounds nuw %struct.PyUnicodeObject, ptr %4, i32 0, i32 1
  %6 = load ptr, ptr %5, align 8, !tbaa !74
  store ptr %6, ptr %3, align 8, !tbaa !9
  %7 = load ptr, ptr %3, align 8, !tbaa !9
  call void @llvm.lifetime.end.p0(i64 8, ptr %3) #9
  ret ptr %7
}

; Function Attrs: inlinehint nounwind uwtable
define internal ptr @_PyUnicode_COMPACT_DATA(ptr noundef %0) #4 {
  %2 = alloca ptr, align 8
  %3 = alloca ptr, align 8
  store ptr %0, ptr %3, align 8, !tbaa !4
  %4 = load ptr, ptr %3, align 8, !tbaa !4
  %5 = call i32 @PyUnicode_IS_ASCII(ptr noundef %4)
  %6 = icmp ne i32 %5, 0
  br i1 %6, label %7, label %10

7:                                                ; preds = %1
  %8 = load ptr, ptr %3, align 8, !tbaa !4
  %9 = getelementptr %struct.PyASCIIObject, ptr %8, i64 1
  store ptr %9, ptr %2, align 8
  br label %13

10:                                               ; preds = %1
  %11 = load ptr, ptr %3, align 8, !tbaa !4
  %12 = getelementptr %struct.PyCompactUnicodeObject, ptr %11, i64 1
  store ptr %12, ptr %2, align 8
  br label %13

13:                                               ; preds = %10, %7
  %14 = load ptr, ptr %2, align 8
  ret ptr %14
}

; Function Attrs: inlinehint nounwind uwtable
define internal i32 @PyUnicode_IS_COMPACT(ptr noundef %0) #4 {
  %2 = alloca ptr, align 8
  store ptr %0, ptr %2, align 8, !tbaa !4
  %3 = load ptr, ptr %2, align 8, !tbaa !4
  %4 = getelementptr inbounds nuw %struct.PyASCIIObject, ptr %3, i32 0, i32 3
  %5 = getelementptr inbounds nuw %struct.anon.52, ptr %4, i32 0, i32 1
  %6 = load i16, ptr %5, align 2
  %7 = lshr i16 %6, 3
  %8 = and i16 %7, 1
  %9 = zext i16 %8 to i32
  ret i32 %9
}

; Function Attrs: inlinehint nounwind uwtable
define internal i32 @Py_IS_TYPE(ptr noundef %0, ptr noundef %1) #4 {
  %3 = alloca ptr, align 8
  %4 = alloca ptr, align 8
  store ptr %0, ptr %3, align 8, !tbaa !4
  store ptr %1, ptr %4, align 8, !tbaa !41
  %5 = load ptr, ptr %3, align 8, !tbaa !4
  %6 = call ptr @_Py_TYPE(ptr noundef %5)
  %7 = load ptr, ptr %4, align 8, !tbaa !41
  %8 = icmp eq ptr %6, %7
  %9 = zext i1 %8 to i32
  ret i32 %9
}

; Function Attrs: inlinehint nounwind uwtable
define internal ptr @_PyUnicode_DATA(ptr noundef %0) #4 {
  %2 = alloca ptr, align 8
  %3 = alloca ptr, align 8
  store ptr %0, ptr %3, align 8, !tbaa !4
  %4 = load ptr, ptr %3, align 8, !tbaa !4
  %5 = call i32 @PyUnicode_IS_COMPACT(ptr noundef %4)
  %6 = icmp ne i32 %5, 0
  br i1 %6, label %7, label %10

7:                                                ; preds = %1
  %8 = load ptr, ptr %3, align 8, !tbaa !4
  %9 = call ptr @_PyUnicode_COMPACT_DATA(ptr noundef %8)
  store ptr %9, ptr %2, align 8
  br label %13

10:                                               ; preds = %1
  %11 = load ptr, ptr %3, align 8, !tbaa !4
  %12 = call ptr @_PyUnicode_NONCOMPACT_DATA(ptr noundef %11)
  store ptr %12, ptr %2, align 8
  br label %13

13:                                               ; preds = %10, %7
  %14 = load ptr, ptr %2, align 8
  ret ptr %14
}

; Function Attrs: inlinehint nounwind uwtable
define internal i64 @Py_SIZE(ptr noundef %0) #4 {
  %2 = alloca ptr, align 8
  store ptr %0, ptr %2, align 8, !tbaa !4
  %3 = load ptr, ptr %2, align 8, !tbaa !4
  %4 = getelementptr inbounds nuw %struct.PyVarObject, ptr %3, i32 0, i32 1
  %5 = load i64, ptr %4, align 8, !tbaa !76
  ret i64 %5
}

; Function Attrs: inlinehint nounwind uwtable
define internal ptr @PyByteArray_AS_STRING(ptr noundef %0) #4 {
  %2 = alloca ptr, align 8
  %3 = alloca ptr, align 8
  %4 = alloca ptr, align 8
  %5 = alloca i32, align 4
  store ptr %0, ptr %3, align 8, !tbaa !4
  call void @llvm.lifetime.start.p0(i64 8, ptr %4) #9
  %6 = load ptr, ptr %3, align 8, !tbaa !4
  store ptr %6, ptr %4, align 8, !tbaa !9
  %7 = load ptr, ptr %4, align 8, !tbaa !9
  %8 = call i64 @Py_SIZE(ptr noundef %7)
  %9 = icmp ne i64 %8, 0
  br i1 %9, label %10, label %14

10:                                               ; preds = %1
  %11 = load ptr, ptr %4, align 8, !tbaa !9
  %12 = getelementptr inbounds nuw %struct.PyByteArrayObject, ptr %11, i32 0, i32 3
  %13 = load ptr, ptr %12, align 8, !tbaa !181
  store ptr %13, ptr %2, align 8
  store i32 1, ptr %5, align 4
  br label %15

14:                                               ; preds = %1
  store ptr @_PyByteArray_empty_string, ptr %2, align 8
  store i32 1, ptr %5, align 4
  br label %15

15:                                               ; preds = %14, %10
  call void @llvm.lifetime.end.p0(i64 8, ptr %4) #9
  %16 = load ptr, ptr %2, align 8
  ret ptr %16
}

; Function Attrs: inlinehint nounwind uwtable
define internal i64 @PyByteArray_GET_SIZE(ptr noundef %0) #4 {
  %2 = alloca ptr, align 8
  %3 = alloca ptr, align 8
  store ptr %0, ptr %2, align 8, !tbaa !4
  call void @llvm.lifetime.start.p0(i64 8, ptr %3) #9
  %4 = load ptr, ptr %2, align 8, !tbaa !4
  store ptr %4, ptr %3, align 8, !tbaa !9
  %5 = load ptr, ptr %3, align 8, !tbaa !9
  %6 = call i64 @Py_SIZE(ptr noundef %5)
  call void @llvm.lifetime.end.p0(i64 8, ptr %3) #9
  ret i64 %6
}

; Function Attrs: inlinehint nounwind uwtable
define internal i32 @PyObject_TypeCheck(ptr noundef %0, ptr noundef %1) #4 {
  %3 = alloca ptr, align 8
  %4 = alloca ptr, align 8
  store ptr %0, ptr %3, align 8, !tbaa !4
  store ptr %1, ptr %4, align 8, !tbaa !41
  %5 = load ptr, ptr %3, align 8, !tbaa !4
  %6 = load ptr, ptr %4, align 8, !tbaa !41
  %7 = call i32 @Py_IS_TYPE(ptr noundef %5, ptr noundef %6)
  %8 = icmp ne i32 %7, 0
  br i1 %8, label %15, label %9

9:                                                ; preds = %2
  %10 = load ptr, ptr %3, align 8, !tbaa !4
  %11 = call ptr @_Py_TYPE(ptr noundef %10)
  %12 = load ptr, ptr %4, align 8, !tbaa !41
  %13 = call i32 @PyType_IsSubtype(ptr noundef %11, ptr noundef %12)
  %14 = icmp ne i32 %13, 0
  br label %15

15:                                               ; preds = %9, %2
  %16 = phi i1 [ true, %2 ], [ %14, %9 ]
  %17 = zext i1 %16 to i32
  ret i32 %17
}

; Function Attrs: inlinehint nounwind uwtable
define internal i32 @PyUnicode_READ_CHAR(ptr noundef %0, i64 noundef %1) #4 {
  %3 = alloca i32, align 4
  %4 = alloca ptr, align 8
  %5 = alloca i64, align 8
  %6 = alloca i32, align 4
  %7 = alloca i32, align 4
  store ptr %0, ptr %4, align 8, !tbaa !4
  store i64 %1, ptr %5, align 8, !tbaa !40
  call void @llvm.lifetime.start.p0(i64 4, ptr %6) #9
  %8 = load ptr, ptr %4, align 8, !tbaa !4
  %9 = getelementptr inbounds nuw %struct.PyASCIIObject, ptr %8, i32 0, i32 3
  %10 = getelementptr inbounds nuw %struct.anon.52, ptr %9, i32 0, i32 1
  %11 = load i16, ptr %10, align 2
  %12 = and i16 %11, 7
  %13 = zext i16 %12 to i32
  store i32 %13, ptr %6, align 4, !tbaa !38
  %14 = load i32, ptr %6, align 4, !tbaa !38
  %15 = icmp eq i32 %14, 1
  br i1 %15, label %16, label %23

16:                                               ; preds = %2
  %17 = load ptr, ptr %4, align 8, !tbaa !4
  %18 = call ptr @_PyUnicode_DATA(ptr noundef %17)
  %19 = load i64, ptr %5, align 8, !tbaa !40
  %20 = getelementptr i8, ptr %18, i64 %19
  %21 = load i8, ptr %20, align 1, !tbaa !74
  %22 = zext i8 %21 to i32
  store i32 %22, ptr %3, align 4
  store i32 1, ptr %7, align 4
  br label %39

23:                                               ; preds = %2
  %24 = load i32, ptr %6, align 4, !tbaa !38
  %25 = icmp eq i32 %24, 2
  br i1 %25, label %26, label %33

26:                                               ; preds = %23
  %27 = load ptr, ptr %4, align 8, !tbaa !4
  %28 = call ptr @_PyUnicode_DATA(ptr noundef %27)
  %29 = load i64, ptr %5, align 8, !tbaa !40
  %30 = getelementptr i16, ptr %28, i64 %29
  %31 = load i16, ptr %30, align 2, !tbaa !180
  %32 = zext i16 %31 to i32
  store i32 %32, ptr %3, align 4
  store i32 1, ptr %7, align 4
  br label %39

33:                                               ; preds = %23
  %34 = load ptr, ptr %4, align 8, !tbaa !4
  %35 = call ptr @_PyUnicode_DATA(ptr noundef %34)
  %36 = load i64, ptr %5, align 8, !tbaa !40
  %37 = getelementptr i32, ptr %35, i64 %36
  %38 = load i32, ptr %37, align 4, !tbaa !38
  store i32 %38, ptr %3, align 4
  store i32 1, ptr %7, align 4
  br label %39

39:                                               ; preds = %33, %26, %16
  call void @llvm.lifetime.end.p0(i64 4, ptr %6) #9
  %40 = load i32, ptr %3, align 4
  ret i32 %40
}

; Function Attrs: inlinehint nounwind uwtable
define internal i64 @PyUnicode_GET_LENGTH(ptr noundef %0) #4 {
  %2 = alloca ptr, align 8
  store ptr %0, ptr %2, align 8, !tbaa !4
  %3 = load ptr, ptr %2, align 8, !tbaa !4
  %4 = getelementptr inbounds nuw %struct.PyASCIIObject, ptr %3, i32 0, i32 1
  %5 = load i64, ptr %4, align 8, !tbaa !177
  ret i64 %5
}

; Function Attrs: inlinehint nounwind uwtable
define internal ptr @PyBytes_AS_STRING(ptr noundef %0) #4 {
  %2 = alloca ptr, align 8
  store ptr %0, ptr %2, align 8, !tbaa !4
  %3 = load ptr, ptr %2, align 8, !tbaa !4
  %4 = getelementptr inbounds nuw %struct.PyBytesObject, ptr %3, i32 0, i32 2
  %5 = getelementptr inbounds [1 x i8], ptr %4, i64 0, i64 0
  ret ptr %5
}

; Function Attrs: inlinehint nounwind uwtable
define internal i64 @PyBytes_GET_SIZE(ptr noundef %0) #4 {
  %2 = alloca ptr, align 8
  %3 = alloca ptr, align 8
  store ptr %0, ptr %2, align 8, !tbaa !4
  call void @llvm.lifetime.start.p0(i64 8, ptr %3) #9
  %4 = load ptr, ptr %2, align 8, !tbaa !4
  store ptr %4, ptr %3, align 8, !tbaa !9
  %5 = load ptr, ptr %3, align 8, !tbaa !9
  %6 = call i64 @Py_SIZE(ptr noundef %5)
  call void @llvm.lifetime.end.p0(i64 8, ptr %3) #9
  ret i64 %6
}

; Function Attrs: inlinehint nounwind uwtable
define internal i32 @PyType_HasFeature(ptr noundef %0, i64 noundef %1) #4 {
  %3 = alloca ptr, align 8
  %4 = alloca i64, align 8
  %5 = alloca i64, align 8
  store ptr %0, ptr %3, align 8, !tbaa !41
  store i64 %1, ptr %4, align 8, !tbaa !40
  call void @llvm.lifetime.start.p0(i64 8, ptr %5) #9
  %6 = load ptr, ptr %3, align 8, !tbaa !41
  %7 = getelementptr inbounds nuw %struct._typeobject, ptr %6, i32 0, i32 19
  %8 = load i64, ptr %7, align 8, !tbaa !78
  store i64 %8, ptr %5, align 8, !tbaa !40
  %9 = load i64, ptr %5, align 8, !tbaa !40
  %10 = load i64, ptr %4, align 8, !tbaa !40
  %11 = and i64 %9, %10
  %12 = icmp ne i64 %11, 0
  %13 = zext i1 %12 to i32
  call void @llvm.lifetime.end.p0(i64 8, ptr %5) #9
  ret i32 %13
}

; Function Attrs: inlinehint nounwind uwtable
define internal ptr @_Py_TYPE(ptr noundef %0) #4 {
  %2 = alloca ptr, align 8
  store ptr %0, ptr %2, align 8, !tbaa !4
  %3 = load ptr, ptr %2, align 8, !tbaa !4
  %4 = getelementptr inbounds nuw %struct._object, ptr %3, i32 0, i32 1
  %5 = load ptr, ptr %4, align 8, !tbaa !75
  ret ptr %5
}

; Function Attrs: nounwind uwtable
define internal ptr @builtin_ord(ptr noundef %0, ptr noundef %1) #0 {
  %3 = alloca ptr, align 8
  %4 = alloca ptr, align 8
  %5 = alloca ptr, align 8
  %6 = alloca i64, align 8
  %7 = alloca i64, align 8
  %8 = alloca i32, align 4
  store ptr %0, ptr %4, align 8, !tbaa !4
  store ptr %1, ptr %5, align 8, !tbaa !4
  call void @llvm.lifetime.start.p0(i64 8, ptr %6) #9
  call void @llvm.lifetime.start.p0(i64 8, ptr %7) #9
  %9 = load ptr, ptr %5, align 8, !tbaa !4
  %10 = call ptr @_Py_TYPE(ptr noundef %9)
  %11 = call i32 @PyType_HasFeature(ptr noundef %10, i64 noundef 134217728)
  %12 = icmp ne i32 %11, 0
  br i1 %12, label %13, label %26

13:                                               ; preds = %2
  %14 = load ptr, ptr %5, align 8, !tbaa !4
  %15 = call i64 @PyBytes_GET_SIZE(ptr noundef %14)
  store i64 %15, ptr %7, align 8, !tbaa !40
  %16 = load i64, ptr %7, align 8, !tbaa !40
  %17 = icmp eq i64 %16, 1
  br i1 %17, label %18, label %25

18:                                               ; preds = %13
  %19 = load ptr, ptr %5, align 8, !tbaa !4
  %20 = call ptr @PyBytes_AS_STRING(ptr noundef %19)
  %21 = load i8, ptr %20, align 1, !tbaa !74
  %22 = zext i8 %21 to i64
  store i64 %22, ptr %6, align 8, !tbaa !40
  %23 = load i64, ptr %6, align 8, !tbaa !40
  %24 = call ptr @PyLong_FromLong(i64 noundef %23)
  store ptr %24, ptr %3, align 8
  store i32 1, ptr %8, align 4
  br label %73

25:                                               ; preds = %13
  br label %69

26:                                               ; preds = %2
  %27 = load ptr, ptr %5, align 8, !tbaa !4
  %28 = call ptr @_Py_TYPE(ptr noundef %27)
  %29 = call i32 @PyType_HasFeature(ptr noundef %28, i64 noundef 268435456)
  %30 = icmp ne i32 %29, 0
  br i1 %30, label %31, label %43

31:                                               ; preds = %26
  %32 = load ptr, ptr %5, align 8, !tbaa !4
  %33 = call i64 @PyUnicode_GET_LENGTH(ptr noundef %32)
  store i64 %33, ptr %7, align 8, !tbaa !40
  %34 = load i64, ptr %7, align 8, !tbaa !40
  %35 = icmp eq i64 %34, 1
  br i1 %35, label %36, label %42

36:                                               ; preds = %31
  %37 = load ptr, ptr %5, align 8, !tbaa !4
  %38 = call i32 @PyUnicode_READ_CHAR(ptr noundef %37, i64 noundef 0)
  %39 = zext i32 %38 to i64
  store i64 %39, ptr %6, align 8, !tbaa !40
  %40 = load i64, ptr %6, align 8, !tbaa !40
  %41 = call ptr @PyLong_FromLong(i64 noundef %40)
  store ptr %41, ptr %3, align 8
  store i32 1, ptr %8, align 4
  br label %73

42:                                               ; preds = %31
  br label %68

43:                                               ; preds = %26
  %44 = load ptr, ptr %5, align 8, !tbaa !4
  %45 = call i32 @PyObject_TypeCheck(ptr noundef %44, ptr noundef @PyByteArray_Type)
  %46 = icmp ne i32 %45, 0
  br i1 %46, label %47, label %60

47:                                               ; preds = %43
  %48 = load ptr, ptr %5, align 8, !tbaa !4
  %49 = call i64 @PyByteArray_GET_SIZE(ptr noundef %48)
  store i64 %49, ptr %7, align 8, !tbaa !40
  %50 = load i64, ptr %7, align 8, !tbaa !40
  %51 = icmp eq i64 %50, 1
  br i1 %51, label %52, label %59

52:                                               ; preds = %47
  %53 = load ptr, ptr %5, align 8, !tbaa !4
  %54 = call ptr @PyByteArray_AS_STRING(ptr noundef %53)
  %55 = load i8, ptr %54, align 1, !tbaa !74
  %56 = zext i8 %55 to i64
  store i64 %56, ptr %6, align 8, !tbaa !40
  %57 = load i64, ptr %6, align 8, !tbaa !40
  %58 = call ptr @PyLong_FromLong(i64 noundef %57)
  store ptr %58, ptr %3, align 8
  store i32 1, ptr %8, align 4
  br label %73

59:                                               ; preds = %47
  br label %67

60:                                               ; preds = %43
  %61 = load ptr, ptr @PyExc_TypeError, align 8, !tbaa !4
  %62 = load ptr, ptr %5, align 8, !tbaa !4
  %63 = call ptr @_Py_TYPE(ptr noundef %62)
  %64 = getelementptr inbounds nuw %struct._typeobject, ptr %63, i32 0, i32 1
  %65 = load ptr, ptr %64, align 8, !tbaa !148
  %66 = call ptr (ptr, ptr, ...) @PyErr_Format(ptr noundef %61, ptr noundef @.str.162, ptr noundef %65)
  store ptr null, ptr %3, align 8
  store i32 1, ptr %8, align 4
  br label %73

67:                                               ; preds = %59
  br label %68

68:                                               ; preds = %67, %42
  br label %69

69:                                               ; preds = %68, %25
  %70 = load ptr, ptr @PyExc_TypeError, align 8, !tbaa !4
  %71 = load i64, ptr %7, align 8, !tbaa !40
  %72 = call ptr (ptr, ptr, ...) @PyErr_Format(ptr noundef %70, ptr noundef @.str.163, i64 noundef %71)
  store ptr null, ptr %3, align 8
  store i32 1, ptr %8, align 4
  br label %73

73:                                               ; preds = %69, %60, %52, %36, %18
  call void @llvm.lifetime.end.p0(i64 8, ptr %7) #9
  call void @llvm.lifetime.end.p0(i64 8, ptr %6) #9
  %74 = load ptr, ptr %3, align 8
  ret ptr %74
}