; Function Attrs: nounwind uwtable
define internal ptr @builtin_ord(ptr readnone captures(none) %0, ptr noundef readonly captures(none) %1) #0 {
  %3 = getelementptr i8, ptr %1, i64 8
  %.val24 = load ptr, ptr %3, align 8, !tbaa !20
  %4 = getelementptr i8, ptr %.val24, i64 168
  %.val26 = load i64, ptr %4, align 8, !tbaa !49
  %5 = and i64 %.val26, 134217728
  %.not = icmp eq i64 %5, 0
  br i1 %.not, label %14, label %6

6:                                                ; preds = %2
  %7 = getelementptr i8, ptr %1, i64 16
  %.val28 = load i64, ptr %7, align 8, !tbaa !45
  %8 = icmp eq i64 %.val28, 1
  br i1 %8, label %9, label %60

9:                                                ; preds = %6
  %10 = getelementptr inbounds nuw i8, ptr %1, i64 32
  %11 = load i8, ptr %10, align 1, !tbaa !33
  %12 = zext i8 %11 to i64
  %13 = tail call ptr @PyLong_FromLong(i64 noundef %12) #9
  br label %63

14:                                               ; preds = %2
  %15 = and i64 %.val26, 268435456
  %.not21 = icmp eq i64 %15, 0
  br i1 %.not21, label %46, label %16

16:                                               ; preds = %14
  %17 = getelementptr i8, ptr %1, i64 16
  %.val29 = load i64, ptr %17, align 8, !tbaa !160
  %18 = icmp eq i64 %.val29, 1
  br i1 %18, label %19, label %60

19:                                               ; preds = %16
  %20 = getelementptr inbounds nuw i8, ptr %1, i64 34
  %21 = load i16, ptr %20, align 2
  %22 = and i16 %21, 7
  %23 = and i16 %21, 8
  %.not.i19.i = icmp eq i16 %23, 0
  switch i16 %22, label %38 [
    i16 1, label %24
    i16 2, label %31
  ]

24:                                               ; preds = %19
  br i1 %.not.i19.i, label %27, label %25

25:                                               ; preds = %24
  %26 = and i16 %21, 16
  %.not.i.i.i = icmp eq i16 %26, 0
  %.0.v.i.i.i = select i1 %.not.i.i.i, i64 56, i64 40
  %.0.i.i.i = getelementptr i8, ptr %1, i64 %.0.v.i.i.i
  br label %_PyUnicode_DATA.exit.i

27:                                               ; preds = %24
  %28 = getelementptr i8, ptr %1, i64 56
  %.val4.i.i = load ptr, ptr %28, align 8, !tbaa !33
  br label %_PyUnicode_DATA.exit.i

_PyUnicode_DATA.exit.i:                           ; preds = %27, %25
  %.0.i.i = phi ptr [ %.0.i.i.i, %25 ], [ %.val4.i.i, %27 ]
  %29 = load i8, ptr %.0.i.i, align 1, !tbaa !33
  %30 = zext i8 %29 to i32
  br label %PyUnicode_READ_CHAR.exit

31:                                               ; preds = %19
  br i1 %.not.i19.i, label %34, label %32

32:                                               ; preds = %31
  %33 = and i16 %21, 16
  %.not.i.i12.i = icmp eq i16 %33, 0
  %.0.v.i.i13.i = select i1 %.not.i.i12.i, i64 56, i64 40
  %.0.i.i14.i = getelementptr i8, ptr %1, i64 %.0.v.i.i13.i
  br label %_PyUnicode_DATA.exit17.i

34:                                               ; preds = %31
  %35 = getelementptr i8, ptr %1, i64 56
  %.val4.i16.i = load ptr, ptr %35, align 8, !tbaa !33
  br label %_PyUnicode_DATA.exit17.i

_PyUnicode_DATA.exit17.i:                         ; preds = %34, %32
  %.0.i15.i = phi ptr [ %.0.i.i14.i, %32 ], [ %.val4.i16.i, %34 ]
  %36 = load i16, ptr %.0.i15.i, align 2, !tbaa !163
  %37 = zext i16 %36 to i32
  br label %PyUnicode_READ_CHAR.exit

38:                                               ; preds = %19
  br i1 %.not.i19.i, label %41, label %39

39:                                               ; preds = %38
  %40 = and i16 %21, 16
  %.not.i.i20.i = icmp eq i16 %40, 0
  %.0.v.i.i21.i = select i1 %.not.i.i20.i, i64 56, i64 40
  %.0.i.i22.i = getelementptr i8, ptr %1, i64 %.0.v.i.i21.i
  br label %_PyUnicode_DATA.exit25.i

41:                                               ; preds = %38
  %42 = getelementptr i8, ptr %1, i64 56
  %.val4.i24.i = load ptr, ptr %42, align 8, !tbaa !33
  br label %_PyUnicode_DATA.exit25.i

_PyUnicode_DATA.exit25.i:                         ; preds = %41, %39
  %.0.i23.i = phi ptr [ %.0.i.i22.i, %39 ], [ %.val4.i24.i, %41 ]
  %43 = load i32, ptr %.0.i23.i, align 4, !tbaa !53
  br label %PyUnicode_READ_CHAR.exit

PyUnicode_READ_CHAR.exit:                         ; preds = %_PyUnicode_DATA.exit.i, %_PyUnicode_DATA.exit17.i, %_PyUnicode_DATA.exit25.i
  %.0.i = phi i32 [ %30, %_PyUnicode_DATA.exit.i ], [ %37, %_PyUnicode_DATA.exit17.i ], [ %43, %_PyUnicode_DATA.exit25.i ]
  %44 = zext i32 %.0.i to i64
  %45 = tail call ptr @PyLong_FromLong(i64 noundef %44) #9
  br label %63

46:                                               ; preds = %14
  %.not.i = icmp eq ptr %.val24, @PyByteArray_Type
  br i1 %.not.i, label %PyObject_TypeCheck.exit.thread, label %PyObject_TypeCheck.exit

PyObject_TypeCheck.exit:                          ; preds = %46
  %47 = tail call i32 @PyType_IsSubtype(ptr noundef %.val24, ptr noundef nonnull @PyByteArray_Type) #9
  %.not34 = icmp eq i32 %47, 0
  br i1 %.not34, label %55, label %PyObject_TypeCheck.exit.thread

PyObject_TypeCheck.exit.thread:                   ; preds = %46, %PyObject_TypeCheck.exit
  %48 = getelementptr i8, ptr %1, i64 16
  %.val30 = load i64, ptr %48, align 8, !tbaa !45
  %49 = icmp eq i64 %.val30, 1
  br i1 %49, label %PyByteArray_AS_STRING.exit, label %60

PyByteArray_AS_STRING.exit:                       ; preds = %PyObject_TypeCheck.exit.thread
  %50 = getelementptr inbounds nuw i8, ptr %1, i64 40
  %51 = load ptr, ptr %50, align 8, !tbaa !164
  %52 = load i8, ptr %51, align 1, !tbaa !33
  %53 = zext i8 %52 to i64
  %54 = tail call ptr @PyLong_FromLong(i64 noundef %53) #9
  br label %63

55:                                               ; preds = %PyObject_TypeCheck.exit
  %56 = load ptr, ptr @PyExc_TypeError, align 8, !tbaa !39
  %.val = load ptr, ptr %3, align 8, !tbaa !20
  %57 = getelementptr inbounds nuw i8, ptr %.val, i64 24
  %58 = load ptr, ptr %57, align 8, !tbaa !144
  %59 = tail call ptr (ptr, ptr, ...) @PyErr_Format(ptr noundef %56, ptr noundef nonnull @.str.162, ptr noundef %58) #9
  br label %63

60:                                               ; preds = %16, %PyObject_TypeCheck.exit.thread, %6
  %.0 = phi i64 [ %.val28, %6 ], [ %.val29, %16 ], [ %.val30, %PyObject_TypeCheck.exit.thread ]
  %61 = load ptr, ptr @PyExc_TypeError, align 8, !tbaa !39
  %62 = tail call ptr (ptr, ptr, ...) @PyErr_Format(ptr noundef %61, ptr noundef nonnull @.str.163, i64 noundef %.0) #9
  br label %63

63:                                               ; preds = %60, %55, %PyByteArray_AS_STRING.exit, %PyUnicode_READ_CHAR.exit, %9
  %.017 = phi ptr [ %13, %9 ], [ null, %60 ], [ %45, %PyUnicode_READ_CHAR.exit ], [ %54, %PyByteArray_AS_STRING.exit ], [ null, %55 ]
  ret ptr %.017
}